target datalayout = "e-m:e-p270:32:32-p271:32:32-p272:64:64-i64:64-i128:128-f80:128-n8:16:32:64-S128"
target triple = "x86_64-unknown-linux-gnu"

%struct.QObjectBase_ = type { i32, i64 }
%struct.QObjectInputVisitor = type { %struct.Visitor, ptr, i8, %struct.anon, ptr }
%struct.Visitor = type { ptr, ptr, ptr, ptr, ptr, ptr, ptr, ptr, ptr, ptr, ptr, ptr, ptr, ptr, ptr, ptr, ptr, ptr, ptr, ptr, i32, %struct.CompatPolicy, ptr, ptr }
%struct.CompatPolicy = type { i8, i32, i8, i32, i8, i32, i8, i32 }
%struct.anon = type { ptr }
%struct.QObject = type { %struct.QObjectBase_ }

@.str.1 = private unnamed_addr constant [37 x i8] c"../qemu/qapi/qobject-input-visitor.c\00", align 1
@.str.2 = private unnamed_addr constant [4 x i8] c"obj\00", align 1
@__PRETTY_FUNCTION__.qobject_input_visitor_base_new = private unnamed_addr constant [63 x i8] c"QObjectInputVisitor *qobject_input_visitor_base_new(QObject *)\00", align 1

; Function Attrs: nounwind sspstrong uwtable
define internal void @qobject_ref_impl(ptr noundef %obj) #0 {
entry:
  %obj.addr = alloca ptr, align 8
  store ptr %obj, ptr %obj.addr, align 8
  %0 = load ptr, ptr %obj.addr, align 8
  %tobool = icmp ne ptr %0, null
  br i1 %tobool, label %if.then, label %if.end

if.then:                                          ; preds = %entry
  %1 = load ptr, ptr %obj.addr, align 8
  %base = getelementptr inbounds %struct.QObject, ptr %1, i32 0, i32 0
  %refcnt = getelementptr inbounds %struct.QObjectBase_, ptr %base, i32 0, i32 1
  %2 = load i64, ptr %refcnt, align 8
  %inc = add i64 %2, 1
  store i64 %inc, ptr %refcnt, align 8
  br label %if.end

if.end:                                           ; preds = %if.then, %entry
  ret void
}

; Function Attrs: nounwind sspstrong uwtable
define internal ptr @qobject_input_visitor_base_new(ptr noundef %obj) #0 {
entry:
  %obj.addr = alloca ptr, align 8
  %v = alloca ptr, align 8
  %_o = alloca ptr, align 8
  %_obj3 = alloca ptr, align 8
  %tmp = alloca ptr, align 8
  %__mptr = alloca ptr, align 8
  %tmp13 = alloca ptr, align 8
  %tmp14 = alloca ptr, align 8
  store ptr %obj, ptr %obj.addr, align 8
  %call = call noalias ptr @g_malloc0(i64 noundef 248) #6
  store ptr %call, ptr %v, align 8
  %0 = load ptr, ptr %obj.addr, align 8
  %tobool = icmp ne ptr %0, null
  br i1 %tobool, label %if.then, label %if.else

if.then:                                          ; preds = %entry
  br label %if.end

if.else:                                          ; preds = %entry
  call void @__assert_fail(ptr noundef @.str.2, ptr noundef @.str.1, i32 noundef 697, ptr noundef @__PRETTY_FUNCTION__.qobject_input_visitor_base_new) #7
  unreachable

if.end:                                           ; preds = %if.then
  %1 = load ptr, ptr %v, align 8
  %visitor = getelementptr inbounds %struct.QObjectInputVisitor, ptr %1, i32 0, i32 0
  %type = getelementptr inbounds %struct.Visitor, ptr %visitor, i32 0, i32 20
  store i32 1, ptr %type, align 8
  %2 = load ptr, ptr %v, align 8
  %visitor1 = getelementptr inbounds %struct.QObjectInputVisitor, ptr %2, i32 0, i32 0
  %start_struct = getelementptr inbounds %struct.Visitor, ptr %visitor1, i32 0, i32 0
  store ptr @qobject_input_start_struct, ptr %start_struct, align 8
  %3 = load ptr, ptr %v, align 8
  %visitor2 = getelementptr inbounds %struct.QObjectInputVisitor, ptr %3, i32 0, i32 0
  %check_struct = getelementptr inbounds %struct.Visitor, ptr %visitor2, i32 0, i32 1
  store ptr @qobject_input_check_struct, ptr %check_struct, align 8
  %4 = load ptr, ptr %v, align 8
  %visitor3 = getelementptr inbounds %struct.QObjectInputVisitor, ptr %4, i32 0, i32 0
  %end_struct = getelementptr inbounds %struct.Visitor, ptr %visitor3, i32 0, i32 2
  store ptr @qobject_input_end_struct, ptr %end_struct, align 8
  %5 = load ptr, ptr %v, align 8
  %visitor4 = getelementptr inbounds %struct.QObjectInputVisitor, ptr %5, i32 0, i32 0
  %start_list = getelementptr inbounds %struct.Visitor, ptr %visitor4, i32 0, i32 3
  store ptr @qobject_input_start_list, ptr %start_list, align 8
  %6 = load ptr, ptr %v, align 8
  %visitor5 = getelementptr inbounds %struct.QObjectInputVisitor, ptr %6, i32 0, i32 0
  %next_list = getelementptr inbounds %struct.Visitor, ptr %visitor5, i32 0, i32 4
  store ptr @qobject_input_next_list, ptr %next_list, align 8
  %7 = load ptr, ptr %v, align 8
  %visitor6 = getelementptr inbounds %struct.QObjectInputVisitor, ptr %7, i32 0, i32 0
  %check_list = getelementptr inbounds %struct.Visitor, ptr %visitor6, i32 0, i32 5
  store ptr @qobject_input_check_list, ptr %check_list, align 8
  %8 = load ptr, ptr %v, align 8
  %visitor7 = getelementptr inbounds %struct.QObjectInputVisitor, ptr %8, i32 0, i32 0
  %end_list = getelementptr inbounds %struct.Visitor, ptr %visitor7, i32 0, i32 6
  store ptr @qobject_input_end_list, ptr %end_list, align 8
  %9 = load ptr, ptr %v, align 8
  %visitor8 = getelementptr inbounds %struct.QObjectInputVisitor, ptr %9, i32 0, i32 0
  %start_alternate = getelementptr inbounds %struct.Visitor, ptr %visitor8, i32 0, i32 7
  store ptr @qobject_input_start_alternate, ptr %start_alternate, align 8
  %10 = load ptr, ptr %v, align 8
  %visitor9 = getelementptr inbounds %struct.QObjectInputVisitor, ptr %10, i32 0, i32 0
  %optional = getelementptr inbounds %struct.Visitor, ptr %visitor9, i32 0, i32 17
  store ptr @qobject_input_optional, ptr %optional, align 8
  %11 = load ptr, ptr %v, align 8
  %visitor10 = getelementptr inbounds %struct.QObjectInputVisitor, ptr %11, i32 0, i32 0
  %policy_reject = getelementptr inbounds %struct.Visitor, ptr %visitor10, i32 0, i32 18
  store ptr @qobject_input_policy_reject, ptr %policy_reject, align 8
  %12 = load ptr, ptr %v, align 8
  %visitor11 = getelementptr inbounds %struct.QObjectInputVisitor, ptr %12, i32 0, i32 0
  %free = getelementptr inbounds %struct.Visitor, ptr %visitor11, i32 0, i32 23
  store ptr @qobject_input_free, ptr %free, align 8
  %13 = load ptr, ptr %obj.addr, align 8
  store ptr %13, ptr %_o, align 8
  %14 = load ptr, ptr %_o, align 8
  store ptr %14, ptr %_obj3, align 8
  %15 = load ptr, ptr %_obj3, align 8
  %tobool12 = icmp ne ptr %15, null
  br i1 %tobool12, label %cond.true, label %cond.false

cond.true:                                        ; preds = %if.end
  %16 = load ptr, ptr %_obj3, align 8
  %base = getelementptr inbounds %struct.QObject, ptr %16, i32 0, i32 0
  store ptr %base, ptr %__mptr, align 8
  %17 = load ptr, ptr %__mptr, align 8
  %add.ptr = getelementptr i8, ptr %17, i64 0
  store ptr %add.ptr, ptr %tmp13, align 8
  %18 = load ptr, ptr %tmp13, align 8
  br label %cond.end

cond.false:                                       ; preds = %if.end
  br label %cond.end

cond.end:                                         ; preds = %cond.false, %cond.true
  %cond = phi ptr [ %18, %cond.true ], [ null, %cond.false ]
  store ptr %cond, ptr %tmp, align 8
  %19 = load ptr, ptr %tmp, align 8
  call void @qobject_ref_impl(ptr noundef %19)
  %20 = load ptr, ptr %_o, align 8
  store ptr %20, ptr %tmp14, align 8
  %21 = load ptr, ptr %tmp14, align 8
  %22 = load ptr, ptr %v, align 8
  %root = getelementptr inbounds %struct.QObjectInputVisitor, ptr %22, i32 0, i32 1
  store ptr %21, ptr %root, align 8
  %23 = load ptr, ptr %v, align 8
  ret ptr %23
}

; Function Attrs: nounwind sspstrong uwtable
define dso_local ptr @qobject_input_visitor_new(ptr noundef %obj) #0 {
entry:
  %obj.addr = alloca ptr, align 8
  %v = alloca ptr, align 8
  store ptr %obj, ptr %obj.addr, align 8
  %0 = load ptr, ptr %obj.addr, align 8
  %call = call ptr @qobject_input_visitor_base_new(ptr noundef %0)
  store ptr %call, ptr %v, align 8
  %1 = load ptr, ptr %v, align 8
  %visitor = getelementptr inbounds %struct.QObjectInputVisitor, ptr %1, i32 0, i32 0
  %type_int64 = getelementptr inbounds %struct.Visitor, ptr %visitor, i32 0, i32 9
  store ptr @qobject_input_type_int64, ptr %type_int64, align 8
  %2 = load ptr, ptr %v, align 8
  %visitor1 = getelementptr inbounds %struct.QObjectInputVisitor, ptr %2, i32 0, i32 0
  %type_uint64 = getelementptr inbounds %struct.Visitor, ptr %visitor1, i32 0, i32 10
  store ptr @qobject_input_type_uint64, ptr %type_uint64, align 8
  %3 = load ptr, ptr %v, align 8
  %visitor2 = getelementptr inbounds %struct.QObjectInputVisitor, ptr %3, i32 0, i32 0
  %type_bool = getelementptr inbounds %struct.Visitor, ptr %visitor2, i32 0, i32 12
  store ptr @qobject_input_type_bool, ptr %type_bool, align 8
  %4 = load ptr, ptr %v, align 8
  %visitor3 = getelementptr inbounds %struct.QObjectInputVisitor, ptr %4, i32 0, i32 0
  %type_str = getelementptr inbounds %struct.Visitor, ptr %visitor3, i32 0, i32 13
  store ptr @qobject_input_type_str, ptr %type_str, align 8
  %5 = load ptr, ptr %v, align 8
  %visitor4 = getelementptr inbounds %struct.QObjectInputVisitor, ptr %5, i32 0, i32 0
  %type_number = getelementptr inbounds %struct.Visitor, ptr %visitor4, i32 0, i32 14
  store ptr @qobject_input_type_number, ptr %type_number, align 8
  %6 = load ptr, ptr %v, align 8
  %visitor5 = getelementptr inbounds %struct.QObjectInputVisitor, ptr %6, i32 0, i32 0
  %type_any = getelementptr inbounds %struct.Visitor, ptr %visitor5, i32 0, i32 15
  store ptr @qobject_input_type_any, ptr %type_any, align 8
  %7 = load ptr, ptr %v, align 8
  %visitor6 = getelementptr inbounds %struct.QObjectInputVisitor, ptr %7, i32 0, i32 0
  %type_null = getelementptr inbounds %struct.Visitor, ptr %visitor6, i32 0, i32 16
  store ptr @qobject_input_type_null, ptr %type_null, align 8
  %8 = load ptr, ptr %v, align 8
  %visitor7 = getelementptr inbounds %struct.QObjectInputVisitor, ptr %8, i32 0, i32 0
  ret ptr %visitor7
}